; Function Attrs: mustprogress nounwind uwtable
define dso_local void @_ZN4llvm21PrettyStackTraceEntryD2Ev(ptr noundef nonnull align 8 captures(none) dereferenceable(16) initializes((0, 8)) %0) unnamed_addr #3 align 2 {
  store ptr getelementptr inbounds nuw inrange(-16, 24) (i8, ptr @_ZTVN4llvm21PrettyStackTraceEntryE, i64 16), ptr %0, align 8
  %2 = getelementptr inbounds nuw i8, ptr %0, i64 8
  %3 = load ptr, ptr %2, align 8
  %4 = tail call align 8 ptr @llvm.threadlocal.address.p0(ptr align 8 @_ZL20PrettyStackTraceHead)
  store ptr %3, ptr %4, align 8
  %5 = load atomic volatile i32, ptr @_ZL30GlobalSigInfoGenerationCounter monotonic, align 4
  %6 = tail call align 4 ptr @llvm.threadlocal.address.p0(ptr align 4 @_ZL35ThreadLocalSigInfoGenerationCounter)
  %7 = load i32, ptr %6, align 4
  %8 = icmp eq i32 %7, 0
  %9 = icmp eq i32 %7, %5
  %or.cond.i = select i1 %8, i1 true, i1 %9
  br i1 %or.cond.i, label %_ZL23printForSigInfoIfNeededv.exit, label %10

10:                                               ; preds = %1
  %11 = tail call noundef nonnull align 8 dereferenceable(96) ptr @_ZN4llvm4errsEv() #19
  tail call fastcc void @_ZL18PrintCurStackTraceRN4llvm11raw_ostreamE(ptr noundef nonnull align 8 dereferenceable(48) %11)
  store i32 %5, ptr %6, align 4
  br label %_ZL23printForSigInfoIfNeededv.exit

_ZL23printForSigInfoIfNeededv.exit:               ; preds = %1, %10
  ret void
}